target datalayout = "e-m:e-p270:32:32-p271:32:32-p272:64:64-i64:64-i128:128-f80:128-n8:16:32:64-S128"
target triple = "x86_64-pc-linux-gnu"

%"class.absl::synchronization_internal::PthreadWaiter" = type { %union.pthread_mutex_t, %union.pthread_cond_t, i32, i32 }
%union.pthread_mutex_t = type { %struct.__pthread_mutex_s }
%struct.__pthread_mutex_s = type { i32, i32, i32, i32, i32, i16, i16, %struct.__pthread_internal_list }
%struct.__pthread_internal_list = type { ptr, ptr }
%union.pthread_cond_t = type { %struct.__pthread_cond_s }
%struct.__pthread_cond_s = type { %union.__atomic_wide_counter, %union.__atomic_wide_counter, [2 x i32], [2 x i32], i32, i32, [2 x i32] }
%union.__atomic_wide_counter = type { i64 }
%"class.absl::synchronization_internal::KernelTimeout" = type { i64 }
%struct.timespec = type { i64, i64 }

; Function Attrs: mustprogress nounwind uwtable
define linkonce_odr dso_local noundef zeroext i1 @_ZNK4absl24synchronization_internal13KernelTimeout19is_relative_timeoutEv(ptr noundef nonnull align 8 dereferenceable(8) %0) #4 comdat align 2 {
  %2 = alloca ptr, align 8
  store ptr %0, ptr %2, align 8, !tbaa !16
  %3 = load ptr, ptr %2, align 8
  %4 = getelementptr inbounds nuw %"class.absl::synchronization_internal::KernelTimeout", ptr %3, i32 0, i32 0
  %5 = load i64, ptr %4, align 8, !tbaa !18
  %6 = and i64 %5, 1
  %7 = icmp eq i64 %6, 1
  ret i1 %7
}

; Function Attrs: mustprogress uwtable
define dso_local noundef i32 @_ZN4absl24synchronization_internal13PthreadWaiter9TimedWaitENS0_13KernelTimeoutE(ptr noundef nonnull align 8 dereferenceable(96) %0, i64 %1) #0 align 2 {
  %3 = alloca i32, align 4
  %4 = alloca %"class.absl::synchronization_internal::KernelTimeout", align 8
  %5 = alloca ptr, align 8
  %6 = alloca %struct.timespec, align 8
  %7 = alloca %struct.timespec, align 8
  %8 = getelementptr inbounds nuw %"class.absl::synchronization_internal::KernelTimeout", ptr %4, i32 0, i32 0
  store i64 %1, ptr %8, align 8
  store ptr %0, ptr %5, align 8, !tbaa !4
  %9 = load ptr, ptr %5, align 8
  %10 = call noundef zeroext i1 @_ZNK4absl24synchronization_internal13KernelTimeout19is_relative_timeoutEv(ptr noundef nonnull align 8 dereferenceable(8) %4)
  br i1 %10, label %11, label %20

11:                                               ; preds = %2
  call void @llvm.lifetime.start.p0(i64 16, ptr %6) #8
  %12 = call { i64, i64 } @_ZNK4absl24synchronization_internal13KernelTimeout25MakeClockAbsoluteTimespecEi(ptr noundef nonnull align 8 dereferenceable(8) %4, i32 noundef 1)
  %13 = getelementptr inbounds nuw { i64, i64 }, ptr %6, i32 0, i32 0
  %14 = extractvalue { i64, i64 } %12, 0
  store i64 %14, ptr %13, align 8
  %15 = getelementptr inbounds nuw { i64, i64 }, ptr %6, i32 0, i32 1
  %16 = extractvalue { i64, i64 } %12, 1
  store i64 %16, ptr %15, align 8
  %17 = getelementptr inbounds nuw %"class.absl::synchronization_internal::PthreadWaiter", ptr %9, i32 0, i32 1
  %18 = getelementptr inbounds nuw %"class.absl::synchronization_internal::PthreadWaiter", ptr %9, i32 0, i32 0
  %19 = call i32 @pthread_cond_clockwait(ptr noundef %17, ptr noundef %18, i32 noundef 1, ptr noundef %6)
  store i32 %19, ptr %3, align 4
  call void @llvm.lifetime.end.p0(i64 16, ptr %6) #8
  br label %29

20:                                               ; preds = %2
  call void @llvm.lifetime.start.p0(i64 16, ptr %7) #8
  %21 = call { i64, i64 } @_ZNK4absl24synchronization_internal13KernelTimeout15MakeAbsTimespecEv(ptr noundef nonnull align 8 dereferenceable(8) %4)
  %22 = getelementptr inbounds nuw { i64, i64 }, ptr %7, i32 0, i32 0
  %23 = extractvalue { i64, i64 } %21, 0
  store i64 %23, ptr %22, align 8
  %24 = getelementptr inbounds nuw { i64, i64 }, ptr %7, i32 0, i32 1
  %25 = extractvalue { i64, i64 } %21, 1
  store i64 %25, ptr %24, align 8
  %26 = getelementptr inbounds nuw %"class.absl::synchronization_internal::PthreadWaiter", ptr %9, i32 0, i32 1
  %27 = getelementptr inbounds nuw %"class.absl::synchronization_internal::PthreadWaiter", ptr %9, i32 0, i32 0
  %28 = call i32 @pthread_cond_timedwait(ptr noundef %26, ptr noundef %27, ptr noundef %7)
  store i32 %28, ptr %3, align 4
  call void @llvm.lifetime.end.p0(i64 16, ptr %7) #8
  br label %29

29:                                               ; preds = %20, %11
  %30 = load i32, ptr %3, align 4
  ret i32 %30
}