; Function Attrs: mustprogress uwtable
define dso_local noundef i32 @_ZN4absl24synchronization_internal13PthreadWaiter9TimedWaitENS0_13KernelTimeoutE(ptr noundef nonnull align 8 dereferenceable(96) %0, i64 %1) local_unnamed_addr #0 align 2 {
  %3 = alloca %"class.absl::synchronization_internal::KernelTimeout", align 8
  %4 = alloca %struct.timespec, align 8
  %5 = alloca %struct.timespec, align 8
  store i64 %1, ptr %3, align 8
  %6 = and i64 %1, 1
  %.not = icmp eq i64 %6, 0
  %7 = getelementptr inbounds nuw i8, ptr %0, i64 40
  br i1 %.not, label %14, label %8

8:                                                ; preds = %2
  call void @llvm.lifetime.start.p0(i64 16, ptr nonnull %4) #7
  %9 = call { i64, i64 } @_ZNK4absl24synchronization_internal13KernelTimeout25MakeClockAbsoluteTimespecEi(ptr noundef nonnull align 8 dereferenceable(8) %3, i32 noundef 1)
  %10 = extractvalue { i64, i64 } %9, 0
  store i64 %10, ptr %4, align 8
  %11 = getelementptr inbounds nuw i8, ptr %4, i64 8
  %12 = extractvalue { i64, i64 } %9, 1
  store i64 %12, ptr %11, align 8
  %13 = call i32 @pthread_cond_clockwait(ptr noundef nonnull %7, ptr noundef nonnull %0, i32 noundef 1, ptr noundef nonnull %4)
  call void @llvm.lifetime.end.p0(i64 16, ptr nonnull %4) #7
  br label %20

14:                                               ; preds = %2
  call void @llvm.lifetime.start.p0(i64 16, ptr nonnull %5) #7
  %15 = call { i64, i64 } @_ZNK4absl24synchronization_internal13KernelTimeout15MakeAbsTimespecEv(ptr noundef nonnull align 8 dereferenceable(8) %3)
  %16 = extractvalue { i64, i64 } %15, 0
  store i64 %16, ptr %5, align 8
  %17 = getelementptr inbounds nuw i8, ptr %5, i64 8
  %18 = extractvalue { i64, i64 } %15, 1
  store i64 %18, ptr %17, align 8
  %19 = call i32 @pthread_cond_timedwait(ptr noundef nonnull %7, ptr noundef nonnull %0, ptr noundef nonnull %5)
  call void @llvm.lifetime.end.p0(i64 16, ptr nonnull %5) #7
  br label %20

20:                                               ; preds = %14, %8
  %.0 = phi i32 [ %13, %8 ], [ %19, %14 ]
  ret i32 %.0
}